target datalayout = "e-m:e-p270:32:32-p271:32:32-p272:64:64-i64:64-i128:128-f80:128-n8:16:32:64-S128"
target triple = "x86_64-pc-linux-gnu"

%struct.Ranges = type { i32, i32, i16, ptr, i32, i32, i32, i32, i32, [0 x i64] }
%struct.compare_context = type { ptr, i32 }

; Function Attrs: inlinehint nounwind uwtable
define internal zeroext i1 @DatumGetBool(i64 noundef %0) #3 {
  %2 = alloca i64, align 8
  store i64 %0, ptr %2, align 8
  %3 = load i64, ptr %2, align 8
  %4 = icmp ne i64 %3, 0
  ret i1 %4
}

; Function Attrs: nounwind uwtable
define internal void @AssertCheckRanges(ptr noundef %0, ptr noundef %1, i32 noundef %2) #0 {
  %4 = alloca ptr, align 8
  %5 = alloca ptr, align 8
  %6 = alloca i32, align 4
  store ptr %0, ptr %4, align 8
  store ptr %1, ptr %5, align 8
  store i32 %2, ptr %6, align 4
  ret void
}

; Function Attrs: nounwind uwtable
define internal i32 @compare_values(ptr noundef %0, ptr noundef %1, ptr noundef %2) #0 {
  %4 = alloca i32, align 4
  %5 = alloca ptr, align 8
  %6 = alloca ptr, align 8
  %7 = alloca ptr, align 8
  %8 = alloca ptr, align 8
  %9 = alloca ptr, align 8
  %10 = alloca i64, align 8
  %11 = alloca ptr, align 8
  %12 = alloca i32, align 4
  store ptr %0, ptr %5, align 8
  store ptr %1, ptr %6, align 8
  store ptr %2, ptr %7, align 8
  call void @llvm.lifetime.start.p0(i64 8, ptr %8) #8
  %13 = load ptr, ptr %5, align 8
  store ptr %13, ptr %8, align 8
  call void @llvm.lifetime.start.p0(i64 8, ptr %9) #8
  %14 = load ptr, ptr %6, align 8
  store ptr %14, ptr %9, align 8
  call void @llvm.lifetime.start.p0(i64 8, ptr %10) #8
  call void @llvm.lifetime.start.p0(i64 8, ptr %11) #8
  %15 = load ptr, ptr %7, align 8
  store ptr %15, ptr %11, align 8
  %16 = load ptr, ptr %11, align 8
  %17 = getelementptr inbounds nuw %struct.compare_context, ptr %16, i32 0, i32 0
  %18 = load ptr, ptr %17, align 8
  %19 = load ptr, ptr %11, align 8
  %20 = getelementptr inbounds nuw %struct.compare_context, ptr %19, i32 0, i32 1
  %21 = load i32, ptr %20, align 8
  %22 = load ptr, ptr %8, align 8
  %23 = load i64, ptr %22, align 8
  %24 = load ptr, ptr %9, align 8
  %25 = load i64, ptr %24, align 8
  %26 = call i64 @FunctionCall2Coll(ptr noundef %18, i32 noundef %21, i64 noundef %23, i64 noundef %25)
  store i64 %26, ptr %10, align 8
  %27 = load i64, ptr %10, align 8
  %28 = call zeroext i1 @DatumGetBool(i64 noundef %27)
  br i1 %28, label %29, label %30

29:                                               ; preds = %3
  store i32 -1, ptr %4, align 4
  store i32 1, ptr %12, align 4
  br label %46

30:                                               ; preds = %3
  %31 = load ptr, ptr %11, align 8
  %32 = getelementptr inbounds nuw %struct.compare_context, ptr %31, i32 0, i32 0
  %33 = load ptr, ptr %32, align 8
  %34 = load ptr, ptr %11, align 8
  %35 = getelementptr inbounds nuw %struct.compare_context, ptr %34, i32 0, i32 1
  %36 = load i32, ptr %35, align 8
  %37 = load ptr, ptr %9, align 8
  %38 = load i64, ptr %37, align 8
  %39 = load ptr, ptr %8, align 8
  %40 = load i64, ptr %39, align 8
  %41 = call i64 @FunctionCall2Coll(ptr noundef %33, i32 noundef %36, i64 noundef %38, i64 noundef %40)
  store i64 %41, ptr %10, align 8
  %42 = load i64, ptr %10, align 8
  %43 = call zeroext i1 @DatumGetBool(i64 noundef %42)
  br i1 %43, label %44, label %45

44:                                               ; preds = %30
  store i32 1, ptr %4, align 4
  store i32 1, ptr %12, align 4
  br label %46

45:                                               ; preds = %30
  store i32 0, ptr %4, align 4
  store i32 1, ptr %12, align 4
  br label %46

46:                                               ; preds = %45, %44, %29
  call void @llvm.lifetime.end.p0(i64 8, ptr %11) #8
  call void @llvm.lifetime.end.p0(i64 8, ptr %10) #8
  call void @llvm.lifetime.end.p0(i64 8, ptr %9) #8
  call void @llvm.lifetime.end.p0(i64 8, ptr %8) #8
  %47 = load i32, ptr %4, align 4
  ret i32 %47
}

; Function Attrs: nounwind uwtable
define internal void @range_deduplicate_values(ptr noundef %0) #0 {
  %2 = alloca ptr, align 8
  %3 = alloca i32, align 4
  %4 = alloca i32, align 4
  %5 = alloca i32, align 4
  %6 = alloca %struct.compare_context, align 8
  %7 = alloca i32, align 4
  store ptr %0, ptr %2, align 8
  call void @llvm.lifetime.start.p0(i64 4, ptr %3) #8
  call void @llvm.lifetime.start.p0(i64 4, ptr %4) #8
  call void @llvm.lifetime.start.p0(i64 4, ptr %5) #8
  call void @llvm.lifetime.start.p0(i64 16, ptr %6) #8
  %8 = load ptr, ptr %2, align 8
  %9 = getelementptr inbounds nuw %struct.Ranges, ptr %8, i32 0, i32 5
  %10 = load i32, ptr %9, align 4
  %11 = load ptr, ptr %2, align 8
  %12 = getelementptr inbounds nuw %struct.Ranges, ptr %11, i32 0, i32 6
  %13 = load i32, ptr %12, align 8
  %14 = icmp eq i32 %10, %13
  br i1 %14, label %15, label %16

15:                                               ; preds = %1
  store i32 1, ptr %7, align 4
  br label %98

16:                                               ; preds = %1
  %17 = load ptr, ptr %2, align 8
  %18 = getelementptr inbounds nuw %struct.Ranges, ptr %17, i32 0, i32 1
  %19 = load i32, ptr %18, align 4
  %20 = getelementptr inbounds nuw %struct.compare_context, ptr %6, i32 0, i32 1
  store i32 %19, ptr %20, align 8
  %21 = load ptr, ptr %2, align 8
  %22 = getelementptr inbounds nuw %struct.Ranges, ptr %21, i32 0, i32 3
  %23 = load ptr, ptr %22, align 8
  %24 = getelementptr inbounds nuw %struct.compare_context, ptr %6, i32 0, i32 0
  store ptr %23, ptr %24, align 8
  %25 = load ptr, ptr %2, align 8
  %26 = getelementptr inbounds nuw %struct.Ranges, ptr %25, i32 0, i32 4
  %27 = load i32, ptr %26, align 8
  %28 = mul i32 2, %27
  store i32 %28, ptr %5, align 4
  %29 = load ptr, ptr %2, align 8
  %30 = getelementptr inbounds nuw %struct.Ranges, ptr %29, i32 0, i32 9
  %31 = load i32, ptr %5, align 4
  %32 = sext i32 %31 to i64
  %33 = getelementptr inbounds [0 x i64], ptr %30, i64 0, i64 %32
  %34 = load ptr, ptr %2, align 8
  %35 = getelementptr inbounds nuw %struct.Ranges, ptr %34, i32 0, i32 6
  %36 = load i32, ptr %35, align 8
  %37 = sext i32 %36 to i64
  call void @qsort_arg(ptr noundef %33, i64 noundef %37, i64 noundef 8, ptr noundef @compare_values, ptr noundef %6)
  store i32 1, ptr %4, align 4
  store i32 1, ptr %3, align 4
  br label %38

38:                                               ; preds = %81, %16
  %39 = load i32, ptr %3, align 4
  %40 = load ptr, ptr %2, align 8
  %41 = getelementptr inbounds nuw %struct.Ranges, ptr %40, i32 0, i32 6
  %42 = load i32, ptr %41, align 8
  %43 = icmp slt i32 %39, %42
  br i1 %43, label %44, label %84

44:                                               ; preds = %38
  %45 = load ptr, ptr %2, align 8
  %46 = getelementptr inbounds nuw %struct.Ranges, ptr %45, i32 0, i32 9
  %47 = load i32, ptr %5, align 4
  %48 = load i32, ptr %3, align 4
  %49 = add i32 %47, %48
  %50 = sub i32 %49, 1
  %51 = sext i32 %50 to i64
  %52 = getelementptr inbounds [0 x i64], ptr %46, i64 0, i64 %51
  %53 = load ptr, ptr %2, align 8
  %54 = getelementptr inbounds nuw %struct.Ranges, ptr %53, i32 0, i32 9
  %55 = load i32, ptr %5, align 4
  %56 = load i32, ptr %3, align 4
  %57 = add i32 %55, %56
  %58 = sext i32 %57 to i64
  %59 = getelementptr inbounds [0 x i64], ptr %54, i64 0, i64 %58
  %60 = call i32 @compare_values(ptr noundef %52, ptr noundef %59, ptr noundef %6)
  %61 = icmp eq i32 %60, 0
  br i1 %61, label %62, label %63

62:                                               ; preds = %44
  br label %81

63:                                               ; preds = %44
  %64 = load ptr, ptr %2, align 8
  %65 = getelementptr inbounds nuw %struct.Ranges, ptr %64, i32 0, i32 9
  %66 = load i32, ptr %5, align 4
  %67 = load i32, ptr %3, align 4
  %68 = add i32 %66, %67
  %69 = sext i32 %68 to i64
  %70 = getelementptr inbounds [0 x i64], ptr %65, i64 0, i64 %69
  %71 = load i64, ptr %70, align 8
  %72 = load ptr, ptr %2, align 8
  %73 = getelementptr inbounds nuw %struct.Ranges, ptr %72, i32 0, i32 9
  %74 = load i32, ptr %5, align 4
  %75 = load i32, ptr %4, align 4
  %76 = add i32 %74, %75
  %77 = sext i32 %76 to i64
  %78 = getelementptr inbounds [0 x i64], ptr %73, i64 0, i64 %77
  store i64 %71, ptr %78, align 8
  %79 = load i32, ptr %4, align 4
  %80 = add i32 %79, 1
  store i32 %80, ptr %4, align 4
  br label %81

81:                                               ; preds = %63, %62
  %82 = load i32, ptr %3, align 4
  %83 = add i32 %82, 1
  store i32 %83, ptr %3, align 4
  br label %38, !llvm.loop !33

84:                                               ; preds = %38
  %85 = load i32, ptr %4, align 4
  %86 = load ptr, ptr %2, align 8
  %87 = getelementptr inbounds nuw %struct.Ranges, ptr %86, i32 0, i32 6
  store i32 %85, ptr %87, align 8
  %88 = load i32, ptr %4, align 4
  %89 = load ptr, ptr %2, align 8
  %90 = getelementptr inbounds nuw %struct.Ranges, ptr %89, i32 0, i32 5
  store i32 %88, ptr %90, align 4
  %91 = load ptr, ptr %2, align 8
  %92 = load ptr, ptr %2, align 8
  %93 = getelementptr inbounds nuw %struct.Ranges, ptr %92, i32 0, i32 3
  %94 = load ptr, ptr %93, align 8
  %95 = load ptr, ptr %2, align 8
  %96 = getelementptr inbounds nuw %struct.Ranges, ptr %95, i32 0, i32 1
  %97 = load i32, ptr %96, align 4
  call void @AssertCheckRanges(ptr noundef %91, ptr noundef %94, i32 noundef %97)
  store i32 0, ptr %7, align 4
  br label %98

98:                                               ; preds = %84, %15
  call void @llvm.lifetime.end.p0(i64 16, ptr %6) #8
  call void @llvm.lifetime.end.p0(i64 4, ptr %5) #8
  call void @llvm.lifetime.end.p0(i64 4, ptr %4) #8
  call void @llvm.lifetime.end.p0(i64 4, ptr %3) #8
  %99 = load i32, ptr %7, align 4
  switch i32 %99, label %101 [
    i32 0, label %100
    i32 1, label %100
  ]

100:                                              ; preds = %98, %98
  ret void

101:                                              ; preds = %98
  unreachable
}